; Function Attrs: mustprogress nofree nounwind uwtable
define internal fastcc noundef nonnull ptr @_ZN4llvm16itanium_demangle22AbstractManglingParserINS0_14ManglingParserIN12_GLOBAL__N_116DefaultAllocatorEEES4_E4makeINS0_25TemplateTemplateParamDeclEJRPNS0_4NodeERNS0_9NodeArrayESB_EEESA_DpOT0_(ptr nocapture noundef nonnull align 16 dereferenceable(4928) %0, ptr nocapture noundef nonnull readonly align 8 dereferenceable(8) %1, ptr nocapture noundef nonnull readonly align 8 dereferenceable(16) %2, ptr nocapture noundef nonnull readonly align 8 dereferenceable(8) %3) unnamed_addr #12 align 2 {
  %5 = getelementptr inbounds i8, ptr %0, i64 4912
  %6 = load ptr, ptr %5, align 16
  %7 = getelementptr inbounds nuw i8, ptr %6, i64 8
  %8 = load i64, ptr %7, align 8
  %9 = add i64 %8, -4032
  %10 = icmp ult i64 %9, -4080
  br i1 %10, label %11, label %_ZN12_GLOBAL__N_116DefaultAllocator8makeNodeIN4llvm16itanium_demangle25TemplateTemplateParamDeclEJRPNS3_4NodeERNS3_9NodeArrayES7_EEEPT_DpOT0_.exit

11:                                               ; preds = %4
  %12 = tail call noalias dereferenceable_or_null(4096) ptr @malloc(i64 noundef 4096) #23
  %13 = icmp eq ptr %12, null
  br i1 %13, label %14, label %_ZN12_GLOBAL__N_120BumpPointerAllocator4growEv.exit.i.i

14:                                               ; preds = %11
  tail call void @_ZSt9terminatev() #22
  unreachable

_ZN12_GLOBAL__N_120BumpPointerAllocator4growEv.exit.i.i: ; preds = %11
  store ptr %6, ptr %12, align 8
  %15 = getelementptr inbounds nuw i8, ptr %12, i64 8
  store i64 0, ptr %15, align 8
  store ptr %12, ptr %5, align 16
  br label %_ZN12_GLOBAL__N_116DefaultAllocator8makeNodeIN4llvm16itanium_demangle25TemplateTemplateParamDeclEJRPNS3_4NodeERNS3_9NodeArrayES7_EEEPT_DpOT0_.exit

_ZN12_GLOBAL__N_116DefaultAllocator8makeNodeIN4llvm16itanium_demangle25TemplateTemplateParamDeclEJRPNS3_4NodeERNS3_9NodeArrayES7_EEEPT_DpOT0_.exit: ; preds = %4, %_ZN12_GLOBAL__N_120BumpPointerAllocator4growEv.exit.i.i
  %16 = phi i64 [ 0, %_ZN12_GLOBAL__N_120BumpPointerAllocator4growEv.exit.i.i ], [ %8, %4 ]
  %17 = phi ptr [ %12, %_ZN12_GLOBAL__N_120BumpPointerAllocator4growEv.exit.i.i ], [ %6, %4 ]
  %18 = getelementptr inbounds nuw i8, ptr %17, i64 8
  %19 = add nsw i64 %16, 48
  store i64 %19, ptr %18, align 8
  %20 = load ptr, ptr %5, align 16
  %21 = getelementptr inbounds i8, ptr %20, i64 16
  %22 = getelementptr inbounds nuw i8, ptr %20, i64 8
  %23 = load i64, ptr %22, align 8
  %24 = getelementptr inbounds i8, ptr %21, i64 %23
  %25 = getelementptr inbounds i8, ptr %24, i64 -48
  %26 = load ptr, ptr %1, align 8
  %.sroa.0.0.copyload.i = load ptr, ptr %2, align 8
  %.sroa.2.0..sroa_idx.i = getelementptr inbounds i8, ptr %2, i64 8
  %.sroa.2.0.copyload.i = load i64, ptr %.sroa.2.0..sroa_idx.i, align 8
  %27 = load ptr, ptr %3, align 8
  %28 = getelementptr inbounds i8, ptr %24, i64 -40
  store i8 38, ptr %28, align 8
  %29 = getelementptr inbounds i8, ptr %24, i64 -39
  %30 = load i16, ptr %29, align 1
  %31 = and i16 %30, -4096
  %32 = or disjoint i16 %31, 1280
  store i16 %32, ptr %29, align 1
  store ptr getelementptr inbounds inrange(-16, 72) (i8, ptr @_ZTVN4llvm16itanium_demangle25TemplateTemplateParamDeclE, i64 16), ptr %25, align 8
  %33 = getelementptr inbounds i8, ptr %24, i64 -32
  store ptr %26, ptr %33, align 8
  %34 = getelementptr inbounds i8, ptr %24, i64 -24
  store ptr %.sroa.0.0.copyload.i, ptr %34, align 8
  %.sroa.2.0..sroa_idx.i.i = getelementptr inbounds i8, ptr %24, i64 -16
  store i64 %.sroa.2.0.copyload.i, ptr %.sroa.2.0..sroa_idx.i.i, align 8
  %35 = getelementptr inbounds i8, ptr %24, i64 -8
  store ptr %27, ptr %35, align 8
  ret ptr %25
}